; Function Attrs: mustprogress uwtable
define hidden noundef zeroext i1 @_ZNK5osgeo4proj9operation21ConcatenatedOperation15_isEquivalentToEPKNS0_4util11IComparableENS4_9CriterionERKSt10shared_ptrINS0_2io15DatabaseContextEE(ptr noundef nonnull align 8 dereferenceable(80) %0, ptr noundef %1, i32 noundef %2, ptr noundef nonnull align 8 dereferenceable(16) %3) unnamed_addr #4 align 2 {
  %5 = icmp eq ptr %1, null
  br i1 %5, label %.thread, label %6

6:                                                ; preds = %4
  %7 = tail call ptr @__dynamic_cast(ptr nonnull %1, ptr nonnull @_ZTIN5osgeo4proj4util11IComparableE, ptr nonnull @_ZTIN5osgeo4proj9operation21ConcatenatedOperationE, i64 16) #19
  %8 = icmp eq ptr %7, null
  br i1 %8, label %.thread, label %9

9:                                                ; preds = %6
  %10 = icmp eq i32 %2, 0
  br i1 %10, label %11, label %13

11:                                               ; preds = %9
  %12 = tail call noundef zeroext i1 @_ZNK5osgeo4proj6common11ObjectUsage15_isEquivalentToEPKNS0_4util11IComparableENS4_9CriterionERKSt10shared_ptrINS0_2io15DatabaseContextEE(ptr noundef nonnull align 8 dereferenceable(48) %0, ptr noundef nonnull %1, i32 noundef 0, ptr noundef nonnull align 8 dereferenceable(16) %3)
  br i1 %12, label %13, label %.thread

13:                                               ; preds = %11, %9
  %14 = getelementptr inbounds i8, ptr %0, i64 72
  %15 = load ptr, ptr %14, align 8
  %16 = getelementptr inbounds i8, ptr %7, i64 72
  %17 = load ptr, ptr %16, align 8
  %18 = getelementptr inbounds i8, ptr %15, i64 8
  %19 = load ptr, ptr %18, align 8
  %20 = load ptr, ptr %15, align 8
  %21 = ptrtoint ptr %19 to i64
  %22 = ptrtoint ptr %20 to i64
  %23 = sub i64 %21, %22
  %24 = getelementptr inbounds i8, ptr %17, i64 8
  %25 = load ptr, ptr %24, align 8
  %26 = load ptr, ptr %17, align 8
  %27 = ptrtoint ptr %25 to i64
  %28 = ptrtoint ptr %26 to i64
  %29 = sub i64 %27, %28
  %.not = icmp eq i64 %23, %29
  br i1 %.not, label %.preheader, label %.thread

.preheader:                                       ; preds = %13
  %.not26 = icmp eq ptr %19, %20
  br i1 %.not26, label %.thread, label %.lr.ph

30:                                               ; preds = %.lr.ph
  %31 = add nuw i64 %.023, 1
  %32 = load ptr, ptr %18, align 8
  %33 = load ptr, ptr %15, align 8
  %34 = ptrtoint ptr %32 to i64
  %35 = ptrtoint ptr %33 to i64
  %36 = sub i64 %34, %35
  %37 = ashr exact i64 %36, 4
  %38 = icmp ult i64 %31, %37
  br i1 %38, label %.lr.ph, label %.thread, !llvm.loop !35

.lr.ph:                                           ; preds = %.preheader, %30
  %39 = phi ptr [ %33, %30 ], [ %20, %.preheader ]
  %.023 = phi i64 [ %31, %30 ], [ 0, %.preheader ]
  %40 = getelementptr inbounds %"class.dropbox::oxygen::nn.40", ptr %39, i64 %.023
  %41 = load ptr, ptr %40, align 8
  %42 = load ptr, ptr %17, align 8
  %43 = getelementptr inbounds %"class.dropbox::oxygen::nn.40", ptr %42, i64 %.023
  %44 = load ptr, ptr %43, align 8
  %45 = icmp eq ptr %44, null
  %46 = getelementptr inbounds i8, ptr %44, i64 16
  %spec.select = select i1 %45, ptr null, ptr %46
  %47 = load ptr, ptr %41, align 8
  %48 = getelementptr inbounds i8, ptr %47, i64 16
  %49 = load ptr, ptr %48, align 8
  %50 = tail call noundef zeroext i1 %49(ptr noundef nonnull align 8 dereferenceable(48) %41, ptr noundef %spec.select, i32 noundef %2, ptr noundef nonnull align 8 dereferenceable(16) %3)
  br i1 %50, label %30, label %.thread

.thread:                                          ; preds = %.lr.ph, %30, %.preheader, %4, %13, %6, %11
  %.019 = phi i1 [ false, %11 ], [ false, %6 ], [ false, %13 ], [ false, %4 ], [ true, %.preheader ], [ %50, %30 ], [ %50, %.lr.ph ]
  ret i1 %.019
}